target datalayout = "e-m:e-p270:32:32-p271:32:32-p272:64:64-i64:64-i128:128-f80:128-n8:16:32:64-S128"
target triple = "x86_64-pc-linux-gnu"

%class.ZPhysicalMemory = type { %class.GrowableArrayCHeap }
%class.GrowableArrayCHeap = type { %class.GrowableArrayWithAllocator }
%class.GrowableArrayWithAllocator = type { %class.GrowableArrayView }
%class.GrowableArrayView = type { %class.GrowableArrayBase, ptr }
%class.GrowableArrayBase = type { i32, i32 }
%class.ZPhysicalMemorySegment = type <{ i64, i64, i8, [7 x i8] }>

; Function Attrs: mustprogress nounwind uwtable
define linkonce_odr hidden void @_ZN17GrowableArrayViewI22ZPhysicalMemorySegmentE9remove_atEi(ptr noundef nonnull align 8 dereferenceable(16) %0, i32 noundef %1) #1 comdat align 2 {
  %3 = alloca ptr, align 8
  %4 = alloca i32, align 4
  %5 = alloca i32, align 4
  store ptr %0, ptr %3, align 8
  store i32 %1, ptr %4, align 4
  %6 = load ptr, ptr %3, align 8
  %7 = load i32, ptr %4, align 4
  %8 = add nsw i32 %7, 1
  store i32 %8, ptr %5, align 4
  br label %9

9:                                                ; preds = %26, %2
  %10 = load i32, ptr %5, align 4
  %11 = getelementptr inbounds %class.GrowableArrayBase, ptr %6, i32 0, i32 0
  %12 = load i32, ptr %11, align 8
  %13 = icmp slt i32 %10, %12
  br i1 %13, label %14, label %29

14:                                               ; preds = %9
  %15 = getelementptr inbounds %class.GrowableArrayView, ptr %6, i32 0, i32 1
  %16 = load ptr, ptr %15, align 8
  %17 = load i32, ptr %5, align 4
  %18 = sext i32 %17 to i64
  %19 = getelementptr inbounds %class.ZPhysicalMemorySegment, ptr %16, i64 %18
  %20 = getelementptr inbounds %class.GrowableArrayView, ptr %6, i32 0, i32 1
  %21 = load ptr, ptr %20, align 8
  %22 = load i32, ptr %5, align 4
  %23 = sub nsw i32 %22, 1
  %24 = sext i32 %23 to i64
  %25 = getelementptr inbounds %class.ZPhysicalMemorySegment, ptr %21, i64 %24
  call void @llvm.memcpy.p0.p0.i64(ptr align 8 %25, ptr align 8 %19, i64 17, i1 false)
  br label %26

26:                                               ; preds = %14
  %27 = load i32, ptr %5, align 4
  %28 = add nsw i32 %27, 1
  store i32 %28, ptr %5, align 4
  br label %9, !llvm.loop !11

29:                                               ; preds = %9
  %30 = getelementptr inbounds %class.GrowableArrayBase, ptr %6, i32 0, i32 0
  %31 = load i32, ptr %30, align 8
  %32 = add nsw i32 %31, -1
  store i32 %32, ptr %30, align 8
  ret void
}

; Function Attrs: mustprogress nounwind uwtable
define hidden void @_ZN15ZPhysicalMemory14remove_segmentEi(ptr noundef nonnull align 8 dereferenceable(16) %0, i32 noundef %1) #1 align 2 {
  %3 = alloca ptr, align 8
  %4 = alloca i32, align 4
  store ptr %0, ptr %3, align 8
  store i32 %1, ptr %4, align 4
  %5 = load ptr, ptr %3, align 8
  %6 = getelementptr inbounds %class.ZPhysicalMemory, ptr %5, i32 0, i32 0
  %7 = load i32, ptr %4, align 4
  call void @_ZN17GrowableArrayViewI22ZPhysicalMemorySegmentE9remove_atEi(ptr noundef nonnull align 8 dereferenceable(16) %6, i32 noundef %7)
  ret void
}