; Function Attrs: mustprogress nofree norecurse nosync nounwind memory(readwrite, inaccessiblemem: none) uwtable
define hidden void @_ZN15ZPhysicalMemory14remove_segmentEi(ptr nocapture noundef nonnull align 8 dereferenceable(16) %0, i32 noundef %1) local_unnamed_addr #4 align 2 {
  %.06.i = add nsw i32 %1, 1
  %3 = load i32, ptr %0, align 8
  %4 = icmp slt i32 %.06.i, %3
  br i1 %4, label %.lr.ph.i, label %_ZN17GrowableArrayViewI22ZPhysicalMemorySegmentE9remove_atEi.exit

.lr.ph.i:                                         ; preds = %2
  %5 = getelementptr inbounds i8, ptr %0, i64 8
  %6 = sext i32 %1 to i64
  %7 = add nsw i64 %6, 1
  br label %8

8:                                                ; preds = %8, %.lr.ph.i
  %indvars.iv10.i = phi i64 [ %6, %.lr.ph.i ], [ %indvars.iv.next11.i, %8 ]
  %indvars.iv.i = phi i64 [ %7, %.lr.ph.i ], [ %indvars.iv.next.i, %8 ]
  %9 = load ptr, ptr %5, align 8
  %10 = getelementptr inbounds %class.ZPhysicalMemorySegment, ptr %9, i64 %indvars.iv.i
  %11 = getelementptr inbounds %class.ZPhysicalMemorySegment, ptr %9, i64 %indvars.iv10.i
  tail call void @llvm.memcpy.p0.p0.i64(ptr noundef nonnull align 8 dereferenceable(17) %11, ptr noundef nonnull align 8 dereferenceable(17) %10, i64 17, i1 false)
  %indvars.iv.next.i = add nsw i64 %indvars.iv.i, 1
  %12 = load i32, ptr %0, align 8
  %13 = sext i32 %12 to i64
  %14 = icmp slt i64 %indvars.iv.next.i, %13
  %indvars.iv.next11.i = add nsw i64 %indvars.iv10.i, 1
  br i1 %14, label %8, label %_ZN17GrowableArrayViewI22ZPhysicalMemorySegmentE9remove_atEi.exit, !llvm.loop !8

_ZN17GrowableArrayViewI22ZPhysicalMemorySegmentE9remove_atEi.exit: ; preds = %8, %2
  %.lcssa.i = phi i32 [ %3, %2 ], [ %12, %8 ]
  %15 = add nsw i32 %.lcssa.i, -1
  store i32 %15, ptr %0, align 8
  ret void
}